target datalayout = "e-m:e-p270:32:32-p271:32:32-p272:64:64-i64:64-i128:128-f80:128-n8:16:32:64-S128"
target triple = "x86_64-pc-linux-gnu"

%struct.regex_matcher = type { %struct.cli_hashtable, i64, ptr, i64, i64, ptr, %struct.cli_matcher, %struct.cli_matcher, %struct.cli_hashset, %struct.cli_matcher, %struct.filter, ptr, i8 }
%struct.cli_hashtable = type { ptr, i64, i64, i64 }
%struct.cli_hashset = type { ptr, ptr, ptr, i32, i32, i32, i32 }
%struct.cli_matcher = type { i32, ptr, ptr, ptr, ptr, i32, i32, i32, i32, i32, %struct.cli_hash_patt, %struct.cli_hash_wild, i32, i32, i32, i32, i32, ptr, ptr, ptr, ptr, ptr, ptr, i32, i32, i8, i8, ptr, i16, i8, i32, ptr, i32, i32, i32, ptr, ptr, i32, ptr, i64, i64, ptr }
%struct.cli_hash_patt = type { [3 x %struct.cli_htu32] }
%struct.cli_htu32 = type { ptr, i64, i64, i64 }
%struct.cli_hash_wild = type { [3 x %struct.cli_sz_hash] }
%struct.cli_sz_hash = type { ptr, ptr, i32 }
%struct.filter = type { [65536 x i8], [65536 x i8], i64 }

@.str.20 = private unnamed_addr constant [24 x i8] c"Regex list not loaded!\0A\00", align 1
@.str.21 = private unnamed_addr constant [21 x i8] c"Building regex list\0A\00", align 1

; Function Attrs: nounwind uwtable
define i32 @cli_build_regex_list(ptr noundef %0) #0 {
  %2 = alloca i32, align 4
  %3 = alloca ptr, align 8
  %4 = alloca i32, align 4
  %5 = alloca i32, align 4
  store ptr %0, ptr %3, align 8, !tbaa !3
  call void @llvm.lifetime.start.p0(i64 4, ptr %4) #11
  %6 = load ptr, ptr %3, align 8, !tbaa !3
  %7 = icmp ne ptr %6, null
  br i1 %7, label %9, label %8

8:                                                ; preds = %1
  store i32 0, ptr %2, align 4
  store i32 1, ptr %5, align 4
  br label %43

9:                                                ; preds = %1
  %10 = load ptr, ptr %3, align 8, !tbaa !3
  %11 = getelementptr inbounds nuw %struct.regex_matcher, ptr %10, i32 0, i32 12
  %12 = load i8, ptr %11, align 8
  %13 = shl i8 %12, 6
  %14 = ashr i8 %13, 6
  %15 = sext i8 %14 to i32
  %16 = icmp ne i32 %15, 0
  br i1 %16, label %17, label %25

17:                                               ; preds = %9
  %18 = load ptr, ptr %3, align 8, !tbaa !3
  %19 = getelementptr inbounds nuw %struct.regex_matcher, ptr %18, i32 0, i32 12
  %20 = load i8, ptr %19, align 8
  %21 = shl i8 %20, 4
  %22 = ashr i8 %21, 6
  %23 = sext i8 %22 to i32
  %24 = icmp ne i32 %23, 0
  br i1 %24, label %26, label %25

25:                                               ; preds = %17, %9
  call void (ptr, ...) @cli_errmsg(ptr noundef @.str.20)
  store i32 -1, ptr %2, align 4
  store i32 1, ptr %5, align 4
  br label %43

26:                                               ; preds = %17
  call void (ptr, ...) @cli_dbgmsg(ptr noundef @.str.21)
  %27 = load ptr, ptr %3, align 8, !tbaa !3
  %28 = getelementptr inbounds nuw %struct.regex_matcher, ptr %27, i32 0, i32 0
  call void @cli_hashtab_free(ptr noundef %28)
  %29 = load ptr, ptr %3, align 8, !tbaa !3
  %30 = getelementptr inbounds nuw %struct.regex_matcher, ptr %29, i32 0, i32 6
  %31 = call i32 @cli_ac_buildtrie(ptr noundef %30)
  store i32 %31, ptr %4, align 4, !tbaa !12
  %32 = icmp ne i32 %31, 0
  br i1 %32, label %33, label %35

33:                                               ; preds = %26
  %34 = load i32, ptr %4, align 4, !tbaa !12
  store i32 %34, ptr %2, align 4
  store i32 1, ptr %5, align 4
  br label %43

35:                                               ; preds = %26
  %36 = load ptr, ptr %3, align 8, !tbaa !3
  %37 = getelementptr inbounds nuw %struct.regex_matcher, ptr %36, i32 0, i32 12
  %38 = load i8, ptr %37, align 8
  %39 = and i8 %38, -49
  %40 = or i8 %39, 16
  store i8 %40, ptr %37, align 8
  %41 = load ptr, ptr %3, align 8, !tbaa !3
  %42 = getelementptr inbounds nuw %struct.regex_matcher, ptr %41, i32 0, i32 8
  call void @cli_hashset_destroy(ptr noundef %42)
  store i32 0, ptr %2, align 4
  store i32 1, ptr %5, align 4
  br label %43

43:                                               ; preds = %35, %33, %25, %8
  call void @llvm.lifetime.end.p0(i64 4, ptr %4) #11
  %44 = load i32, ptr %2, align 4
  ret i32 %44
}