; Function Attrs: nounwind uwtable
define i32 @cli_build_regex_list(ptr noundef %0) local_unnamed_addr #0 {
  %.not = icmp eq ptr %0, null
  br i1 %.not, label %15, label %2

2:                                                ; preds = %1
  %3 = getelementptr inbounds nuw i8, ptr %0, i64 132448
  %4 = load i8, ptr %3, align 8
  %.mask = and i8 %4, 3
  %.not10 = icmp eq i8 %.mask, 0
  %5 = and i8 %4, 12
  %.not11 = icmp eq i8 %5, 0
  %or.cond = or i1 %.not10, %.not11
  br i1 %or.cond, label %6, label %7

6:                                                ; preds = %2
  tail call void (ptr, ...) @cli_errmsg(ptr noundef nonnull @.str.20) #14
  br label %15

7:                                                ; preds = %2
  tail call void (ptr, ...) @cli_dbgmsg(ptr noundef nonnull @.str.21) #14
  tail call void @cli_hashtab_free(ptr noundef nonnull %0) #14
  %8 = getelementptr inbounds nuw i8, ptr %0, i64 72
  %9 = tail call i32 @cli_ac_buildtrie(ptr noundef nonnull %8) #14
  %.not12 = icmp eq i32 %9, 0
  br i1 %.not12, label %10, label %15

10:                                               ; preds = %7
  %11 = load i8, ptr %3, align 8
  %12 = and i8 %11, -49
  %13 = or disjoint i8 %12, 16
  store i8 %13, ptr %3, align 8
  %14 = getelementptr inbounds nuw i8, ptr %0, i64 904
  tail call void @cli_hashset_destroy(ptr noundef nonnull %14) #14
  br label %15

15:                                               ; preds = %7, %1, %10, %6
  %.0 = phi i32 [ 0, %10 ], [ -1, %6 ], [ 0, %1 ], [ %9, %7 ]
  ret i32 %.0
}